; Function Attrs: mustprogress uwtable
define internal fastcc void @_Z20print_constr_detailsIN12_GLOBAL__N_134TypeForMoveOnlyHolderWithAddressOfEJEEvPT_RKNSt7__cxx1112basic_stringIcSt11char_traitsIcESaIcEEEDpOT0_(ptr noundef %0, ptr noundef nonnull align 8 dereferenceable(32) %1) unnamed_addr #1 personality ptr @__gxx_personality_v0 {
  %3 = alloca i64, align 8
  %4 = alloca %"class.pybind11::str", align 8
  %5 = alloca i64, align 8
  %6 = alloca %"class.std::__cxx11::basic_string", align 8
  %7 = alloca %"class.pybind11::str", align 8
  call void @_ZN8pybind116detail13clean_type_idB5cxx11EPKc(ptr dead_on_unwind nonnull writable sret(%"class.std::__cxx11::basic_string") align 8 %6, ptr noundef nonnull @_ZTSN12_GLOBAL__N_134TypeForMoveOnlyHolderWithAddressOfE)
  call void @llvm.lifetime.start.p0(i64 8, ptr nonnull %4)
  call void @llvm.lifetime.start.p0(i64 8, ptr nonnull %5)
  call void @llvm.lifetime.start.p0(i64 8, ptr nonnull %3), !noalias !2130
  store i64 5, ptr %3, align 8, !noalias !2133
  invoke void @_ZN8pybind113strC2ImTnNSt9enable_ifIXsr3std11is_integralIT_EE5valueEiE4typeELi0EEEPKcRKS3_(ptr noundef nonnull align 8 dereferenceable(8) %4, ptr noundef nonnull @.str.184, ptr noundef nonnull align 8 dereferenceable(8) %3)
          to label %.noexc unwind label %30

.noexc:                                           ; preds = %2
  call void @llvm.lifetime.end.p0(i64 8, ptr nonnull %3), !noalias !2130
  %8 = ptrtoint ptr %0 to i64
  store i64 %8, ptr %5, align 8, !noalias !2130
  invoke void @_ZNK8pybind113str6formatIJmEEES0_DpOT_(ptr dead_on_unwind nonnull writable sret(%"class.pybind11::str") align 8 %7, ptr noundef nonnull align 8 dereferenceable(8) %4, ptr noundef nonnull align 8 dereferenceable(8) %5)
          to label %9 unwind label %18

9:                                                ; preds = %.noexc
  %10 = load ptr, ptr %4, align 8, !noalias !2130
  %.not.i.i.i.i.i = icmp eq ptr %10, null
  br i1 %.not.i.i.i.i.i, label %20, label %11

11:                                               ; preds = %9
  %12 = load i64, ptr %10, align 8
  %13 = add nsw i64 %12, -1
  store i64 %13, ptr %10, align 8
  %.not.i.i.i.i.i.i = icmp eq i64 %13, 0
  br i1 %.not.i.i.i.i.i.i, label %14, label %20

14:                                               ; preds = %11
  invoke void @_Py_Dealloc(ptr noundef nonnull %10)
          to label %20 unwind label %15

15:                                               ; preds = %14
  %16 = landingpad { ptr, i32 }
          catch ptr null
  %17 = extractvalue { ptr, i32 } %16, 0
  call void @__clang_call_terminate(ptr %17) #29
  unreachable

18:                                               ; preds = %.noexc
  %19 = landingpad { ptr, i32 }
          cleanup
  call void @_ZN8pybind113strD2Ev(ptr noundef nonnull align 8 dereferenceable(8) %4) #28
  br label %.body

20:                                               ; preds = %14, %11, %9
  call void @llvm.lifetime.end.p0(i64 8, ptr nonnull %4)
  call void @llvm.lifetime.end.p0(i64 8, ptr nonnull %5)
  invoke void @_ZN8pybind115printILNS_19return_value_policyE1EJRA4_KcNSt7__cxx1112basic_stringIcSt11char_traitsIcESaIcEEERA2_S2_NS_3strERKSA_EEEvDpOT0_(ptr noundef nonnull align 1 dereferenceable(4) @.str.171, ptr noundef nonnull align 8 dereferenceable(32) %6, ptr noundef nonnull align 1 dereferenceable(2) @.str.172, ptr noundef nonnull align 8 dereferenceable(8) %7, ptr noundef nonnull align 8 dereferenceable(32) %1)
          to label %21 unwind label %32

21:                                               ; preds = %20
  %22 = load ptr, ptr %7, align 8
  %.not.i.i.i.i = icmp eq ptr %22, null
  br i1 %.not.i.i.i.i, label %_ZN8pybind113strD2Ev.exit, label %23

23:                                               ; preds = %21
  %24 = load i64, ptr %22, align 8
  %25 = add nsw i64 %24, -1
  store i64 %25, ptr %22, align 8
  %.not.i.i.i.i.i5 = icmp eq i64 %25, 0
  br i1 %.not.i.i.i.i.i5, label %26, label %_ZN8pybind113strD2Ev.exit

26:                                               ; preds = %23
  invoke void @_Py_Dealloc(ptr noundef nonnull %22)
          to label %_ZN8pybind113strD2Ev.exit unwind label %27

27:                                               ; preds = %26
  %28 = landingpad { ptr, i32 }
          catch ptr null
  %29 = extractvalue { ptr, i32 } %28, 0
  call void @__clang_call_terminate(ptr %29) #29
  unreachable

_ZN8pybind113strD2Ev.exit:                        ; preds = %21, %23, %26
  call void @_ZNSt7__cxx1112basic_stringIcSt11char_traitsIcESaIcEED1Ev(ptr noundef nonnull align 8 dereferenceable(32) %6) #28
  ret void

30:                                               ; preds = %2
  %31 = landingpad { ptr, i32 }
          cleanup
  br label %.body

32:                                               ; preds = %20
  %33 = landingpad { ptr, i32 }
          cleanup
  call void @_ZN8pybind113strD2Ev(ptr noundef nonnull align 8 dereferenceable(8) %7) #28
  br label %.body

.body:                                            ; preds = %30, %18, %32
  %.pn = phi { ptr, i32 } [ %33, %32 ], [ %31, %30 ], [ %19, %18 ]
  call void @_ZNSt7__cxx1112basic_stringIcSt11char_traitsIcESaIcEED1Ev(ptr noundef nonnull align 8 dereferenceable(32) %6) #28
  resume { ptr, i32 } %.pn
}